target datalayout = "e-m:e-p270:32:32-p271:32:32-p272:64:64-i64:64-i128:128-f80:128-n8:16:32:64-S128"
target triple = "x86_64-pc-linux-gnu"

%struct.lua_TValue = type { %union.Value, [1 x i32], i32 }
%union.Value = type { ptr }
%struct.lua_State = type { i8, i8, i8, i8, i8, i8, i8, ptr, ptr, ptr, ptr, ptr, ptr, ptr, ptr, i32, i32, i16, i16, i32, ptr, ptr, ptr, ptr, ptr }
%struct.global_State = type { %struct.stringtable, ptr, ptr, i8, i8, ptr, ptr, ptr, i64, i64, i32, i32, i32, [40 x ptr], [40 x ptr], ptr, ptr, ptr, [256 x i64], ptr, %struct.UpVal, [11 x ptr], [11 x ptr], [21 x ptr], %struct.lua_TValue, %struct.lua_TValue, i32, ptr, i64, [4 x i64], %struct.lua_Callbacks, %struct.lua_ExecutionCallbacks, [128 x ptr], [128 x ptr], [128 x ptr], %struct.GCStats }
%struct.stringtable = type { ptr, i32, i32 }
%struct.UpVal = type { i8, i8, i8, i8, ptr, %union.anon }
%union.anon = type { %struct.anon }
%struct.anon = type { ptr, ptr, ptr }
%struct.lua_Callbacks = type { ptr, ptr, ptr, ptr, ptr, ptr, ptr, ptr, ptr, ptr }
%struct.lua_ExecutionCallbacks = type { ptr, ptr, ptr, ptr, ptr, ptr, ptr }
%struct.GCStats = type { [32 x i32], i32, i32, i64, i64, i64, double, double, double }
%struct.TString = type { i8, i8, i8, i16, ptr, i32, i32, [1 x i8] }

@luaT_typenames = hidden constant [11 x ptr] [ptr @.str, ptr @.str.1, ptr @.str.2, ptr @.str.3, ptr @.str.4, ptr @.str.5, ptr @.str.6, ptr @.str.7, ptr @.str.2, ptr @.str.8, ptr @.str.9], align 16

; Function Attrs: mustprogress uwtable
define hidden void @_Z9luaT_initP9lua_State(ptr noundef %0) #0 {
  %2 = alloca ptr, align 8
  %3 = alloca i32, align 4
  store ptr %0, ptr %2, align 8, !tbaa !4
  call void @llvm.lifetime.start.p0(i64 4, ptr %3) #4
  store i32 0, ptr %3, align 4, !tbaa !9
  br label %4

4:                                                ; preds = %39, %1
  %5 = load i32, ptr %3, align 4, !tbaa !9
  %6 = icmp slt i32 %5, 11
  br i1 %6, label %7, label %42

7:                                                ; preds = %4
  %8 = load ptr, ptr %2, align 8, !tbaa !4
  %9 = load i32, ptr %3, align 4, !tbaa !9
  %10 = sext i32 %9 to i64
  %11 = getelementptr inbounds [11 x ptr], ptr @luaT_typenames, i64 0, i64 %10
  %12 = load ptr, ptr %11, align 8, !tbaa !11
  %13 = load i32, ptr %3, align 4, !tbaa !9
  %14 = sext i32 %13 to i64
  %15 = getelementptr inbounds [11 x ptr], ptr @luaT_typenames, i64 0, i64 %14
  %16 = load ptr, ptr %15, align 8, !tbaa !11
  %17 = call i64 @strlen(ptr noundef %16) #5
  %18 = call noundef ptr @_Z12luaS_newlstrP9lua_StatePKcm(ptr noundef %8, ptr noundef %12, i64 noundef %17)
  %19 = load ptr, ptr %2, align 8, !tbaa !4
  %20 = getelementptr inbounds nuw %struct.lua_State, ptr %19, i32 0, i32 9
  %21 = load ptr, ptr %20, align 8, !tbaa !13
  %22 = getelementptr inbounds nuw %struct.global_State, ptr %21, i32 0, i32 22
  %23 = load i32, ptr %3, align 4, !tbaa !9
  %24 = sext i32 %23 to i64
  %25 = getelementptr inbounds [11 x ptr], ptr %22, i64 0, i64 %24
  store ptr %18, ptr %25, align 8, !tbaa !24
  %26 = load ptr, ptr %2, align 8, !tbaa !4
  %27 = getelementptr inbounds nuw %struct.lua_State, ptr %26, i32 0, i32 9
  %28 = load ptr, ptr %27, align 8, !tbaa !13
  %29 = getelementptr inbounds nuw %struct.global_State, ptr %28, i32 0, i32 22
  %30 = load i32, ptr %3, align 4, !tbaa !9
  %31 = sext i32 %30 to i64
  %32 = getelementptr inbounds [11 x ptr], ptr %29, i64 0, i64 %31
  %33 = load ptr, ptr %32, align 8, !tbaa !24
  %34 = getelementptr inbounds nuw %struct.TString, ptr %33, i32 0, i32 1
  %35 = load i8, ptr %34, align 1, !tbaa !25
  %36 = zext i8 %35 to i32
  %37 = or i32 %36, 8
  %38 = trunc i32 %37 to i8
  store i8 %38, ptr %34, align 1, !tbaa !25
  br label %39

39:                                               ; preds = %7
  %40 = load i32, ptr %3, align 4, !tbaa !9
  %41 = add nsw i32 %40, 1
  store i32 %41, ptr %3, align 4, !tbaa !9
  br label %4, !llvm.loop !27

42:                                               ; preds = %4
  store i32 0, ptr %3, align 4, !tbaa !9
  br label %43

43:                                               ; preds = %78, %42
  %44 = load i32, ptr %3, align 4, !tbaa !9
  %45 = icmp slt i32 %44, 21
  br i1 %45, label %46, label %81

46:                                               ; preds = %43
  %47 = load ptr, ptr %2, align 8, !tbaa !4
  %48 = load i32, ptr %3, align 4, !tbaa !9
  %49 = sext i32 %48 to i64
  %50 = getelementptr inbounds [21 x ptr], ptr @luaT_eventname, i64 0, i64 %49
  %51 = load ptr, ptr %50, align 8, !tbaa !11
  %52 = load i32, ptr %3, align 4, !tbaa !9
  %53 = sext i32 %52 to i64
  %54 = getelementptr inbounds [21 x ptr], ptr @luaT_eventname, i64 0, i64 %53
  %55 = load ptr, ptr %54, align 8, !tbaa !11
  %56 = call i64 @strlen(ptr noundef %55) #5
  %57 = call noundef ptr @_Z12luaS_newlstrP9lua_StatePKcm(ptr noundef %47, ptr noundef %51, i64 noundef %56)
  %58 = load ptr, ptr %2, align 8, !tbaa !4
  %59 = getelementptr inbounds nuw %struct.lua_State, ptr %58, i32 0, i32 9
  %60 = load ptr, ptr %59, align 8, !tbaa !13
  %61 = getelementptr inbounds nuw %struct.global_State, ptr %60, i32 0, i32 23
  %62 = load i32, ptr %3, align 4, !tbaa !9
  %63 = sext i32 %62 to i64
  %64 = getelementptr inbounds [21 x ptr], ptr %61, i64 0, i64 %63
  store ptr %57, ptr %64, align 8, !tbaa !24
  %65 = load ptr, ptr %2, align 8, !tbaa !4
  %66 = getelementptr inbounds nuw %struct.lua_State, ptr %65, i32 0, i32 9
  %67 = load ptr, ptr %66, align 8, !tbaa !13
  %68 = getelementptr inbounds nuw %struct.global_State, ptr %67, i32 0, i32 23
  %69 = load i32, ptr %3, align 4, !tbaa !9
  %70 = sext i32 %69 to i64
  %71 = getelementptr inbounds [21 x ptr], ptr %68, i64 0, i64 %70
  %72 = load ptr, ptr %71, align 8, !tbaa !24
  %73 = getelementptr inbounds nuw %struct.TString, ptr %72, i32 0, i32 1
  %74 = load i8, ptr %73, align 1, !tbaa !25
  %75 = zext i8 %74 to i32
  %76 = or i32 %75, 8
  %77 = trunc i32 %76 to i8
  store i8 %77, ptr %73, align 1, !tbaa !25
  br label %78

78:                                               ; preds = %46
  %79 = load i32, ptr %3, align 4, !tbaa !9
  %80 = add nsw i32 %79, 1
  store i32 %80, ptr %3, align 4, !tbaa !9
  br label %43, !llvm.loop !29

81:                                               ; preds = %43
  call void @llvm.lifetime.end.p0(i64 4, ptr %3) #4
  ret void
}