; Function Attrs: mustprogress uwtable
define hidden void @_Z9luaT_initP9lua_State(ptr noundef %0) local_unnamed_addr #0 {
  %2 = getelementptr inbounds nuw i8, ptr %0, i64 24
  br label %3

3:                                                ; preds = %1, %3
  %indvars.iv = phi i64 [ 0, %1 ], [ %indvars.iv.next, %3 ]
  %4 = getelementptr inbounds nuw [11 x ptr], ptr @luaT_typenames, i64 0, i64 %indvars.iv
  %5 = load ptr, ptr %4, align 8, !tbaa !4
  %6 = tail call i64 @strlen(ptr noundef nonnull dereferenceable(1) %5) #3
  %7 = tail call noundef ptr @_Z12luaS_newlstrP9lua_StatePKcm(ptr noundef %0, ptr noundef nonnull %5, i64 noundef %6)
  %8 = load ptr, ptr %2, align 8, !tbaa !9
  %9 = getelementptr inbounds nuw i8, ptr %8, i64 2944
  %10 = getelementptr inbounds nuw [11 x ptr], ptr %9, i64 0, i64 %indvars.iv
  store ptr %7, ptr %10, align 8, !tbaa !21
  %11 = getelementptr inbounds nuw i8, ptr %7, i64 1
  %12 = load i8, ptr %11, align 1, !tbaa !22
  %13 = or i8 %12, 8
  store i8 %13, ptr %11, align 1, !tbaa !22
  %indvars.iv.next = add nuw nsw i64 %indvars.iv, 1
  %exitcond.not = icmp eq i64 %indvars.iv.next, 11
  br i1 %exitcond.not, label %.preheader, label %3, !llvm.loop !24

.preheader:                                       ; preds = %3, %.preheader
  %indvars.iv20 = phi i64 [ %indvars.iv.next21, %.preheader ], [ 0, %3 ]
  %14 = getelementptr inbounds nuw [21 x ptr], ptr @luaT_eventname, i64 0, i64 %indvars.iv20
  %15 = load ptr, ptr %14, align 8, !tbaa !4
  %16 = tail call i64 @strlen(ptr noundef nonnull dereferenceable(1) %15) #3
  %17 = tail call noundef ptr @_Z12luaS_newlstrP9lua_StatePKcm(ptr noundef nonnull %0, ptr noundef nonnull %15, i64 noundef %16)
  %18 = load ptr, ptr %2, align 8, !tbaa !9
  %19 = getelementptr inbounds nuw i8, ptr %18, i64 3032
  %20 = getelementptr inbounds nuw [21 x ptr], ptr %19, i64 0, i64 %indvars.iv20
  store ptr %17, ptr %20, align 8, !tbaa !21
  %21 = getelementptr inbounds nuw i8, ptr %17, i64 1
  %22 = load i8, ptr %21, align 1, !tbaa !22
  %23 = or i8 %22, 8
  store i8 %23, ptr %21, align 1, !tbaa !22
  %indvars.iv.next21 = add nuw nsw i64 %indvars.iv20, 1
  %exitcond23.not = icmp eq i64 %indvars.iv.next21, 21
  br i1 %exitcond23.not, label %24, label %.preheader, !llvm.loop !26

24:                                               ; preds = %.preheader
  ret void
}